target datalayout = "e-m:e-p270:32:32-p271:32:32-p272:64:64-i64:64-i128:128-f80:128-n8:16:32:64-S128"
target triple = "x86_64-pc-linux-gnu"

%struct.expert_field = type { i32, i32 }

@hf_pn_io_rs_properties = internal global i32 0, align 4
@hf_pn_io_rs_properties_alarm_transport = internal global i32 0, align 4
@hf_pn_io_rs_properties_reserved1 = internal global i32 0, align 4
@hf_pn_io_rs_properties_reserved2 = internal global i32 0, align 4
@ei_pn_io_block_version = internal global %struct.expert_field zeroinitializer, align 4
@.str.1317 = private unnamed_addr constant [41 x i8] c"Block version %u.%u not implemented yet!\00", align 1

; Function Attrs: nounwind uwtable
define internal i32 @dissect_RSInfoBlock_block(ptr noundef %0, i32 noundef %1, ptr noundef %2, ptr noundef %3, ptr noundef %4, ptr noundef %5, i8 noundef zeroext %6, i8 noundef zeroext %7, i16 noundef zeroext %8) #0 {
  %10 = alloca i32, align 4
  %11 = alloca ptr, align 8
  %12 = alloca i32, align 4
  %13 = alloca ptr, align 8
  %14 = alloca ptr, align 8
  %15 = alloca ptr, align 8
  %16 = alloca ptr, align 8
  %17 = alloca i8, align 1
  %18 = alloca i8, align 1
  %19 = alloca i16, align 2
  %20 = alloca i32, align 4
  store ptr %0, ptr %11, align 8
  store i32 %1, ptr %12, align 4
  store ptr %2, ptr %13, align 8
  store ptr %3, ptr %14, align 8
  store ptr %4, ptr %15, align 8
  store ptr %5, ptr %16, align 8
  store i8 %6, ptr %17, align 1
  store i8 %7, ptr %18, align 1
  store i16 %8, ptr %19, align 2
  %21 = load i8, ptr %17, align 1
  %22 = zext i8 %21 to i32
  %23 = icmp ne i32 %22, 1
  br i1 %23, label %28, label %24

24:                                               ; preds = %9
  %25 = load i8, ptr %18, align 1
  %26 = zext i8 %25 to i32
  %27 = icmp ne i32 %26, 0
  br i1 %27, label %28, label %37

28:                                               ; preds = %24, %9
  %29 = load ptr, ptr %13, align 8
  %30 = load ptr, ptr %15, align 8
  %31 = load i8, ptr %17, align 1
  %32 = zext i8 %31 to i32
  %33 = load i8, ptr %18, align 1
  %34 = zext i8 %33 to i32
  %35 = call ptr (ptr, ptr, ptr, ptr, ...) @expert_add_info_format(ptr noundef %29, ptr noundef %30, ptr noundef @ei_pn_io_block_version, ptr noundef @.str.1317, i32 noundef %32, i32 noundef %34)
  %36 = load i32, ptr %12, align 4
  store i32 %36, ptr %10, align 4
  br label %72

37:                                               ; preds = %24
  %38 = load ptr, ptr %11, align 8
  %39 = load i32, ptr %12, align 4
  %40 = load ptr, ptr %13, align 8
  %41 = load ptr, ptr %14, align 8
  %42 = call i32 @dissect_pn_padding(ptr noundef %38, i32 noundef %39, ptr noundef %40, ptr noundef %41, i32 noundef 2)
  store i32 %42, ptr %12, align 4
  %43 = load ptr, ptr %11, align 8
  %44 = load i32, ptr %12, align 4
  %45 = load ptr, ptr %13, align 8
  %46 = load ptr, ptr %14, align 8
  %47 = load ptr, ptr %16, align 8
  %48 = load i32, ptr @hf_pn_io_rs_properties, align 4
  %49 = call i32 @dissect_dcerpc_uint32(ptr noundef %43, i32 noundef %44, ptr noundef %45, ptr noundef %46, ptr noundef %47, i32 noundef %48, ptr noundef %20)
  %50 = load ptr, ptr %11, align 8
  %51 = load i32, ptr %12, align 4
  %52 = load ptr, ptr %13, align 8
  %53 = load ptr, ptr %14, align 8
  %54 = load ptr, ptr %16, align 8
  %55 = load i32, ptr @hf_pn_io_rs_properties_alarm_transport, align 4
  %56 = call i32 @dissect_dcerpc_uint32(ptr noundef %50, i32 noundef %51, ptr noundef %52, ptr noundef %53, ptr noundef %54, i32 noundef %55, ptr noundef %20)
  %57 = load ptr, ptr %11, align 8
  %58 = load i32, ptr %12, align 4
  %59 = load ptr, ptr %13, align 8
  %60 = load ptr, ptr %14, align 8
  %61 = load ptr, ptr %16, align 8
  %62 = load i32, ptr @hf_pn_io_rs_properties_reserved1, align 4
  %63 = call i32 @dissect_dcerpc_uint32(ptr noundef %57, i32 noundef %58, ptr noundef %59, ptr noundef %60, ptr noundef %61, i32 noundef %62, ptr noundef %20)
  %64 = load ptr, ptr %11, align 8
  %65 = load i32, ptr %12, align 4
  %66 = load ptr, ptr %13, align 8
  %67 = load ptr, ptr %14, align 8
  %68 = load ptr, ptr %16, align 8
  %69 = load i32, ptr @hf_pn_io_rs_properties_reserved2, align 4
  %70 = call i32 @dissect_dcerpc_uint32(ptr noundef %64, i32 noundef %65, ptr noundef %66, ptr noundef %67, ptr noundef %68, i32 noundef %69, ptr noundef %20)
  store i32 %70, ptr %12, align 4
  %71 = load i32, ptr %12, align 4
  store i32 %71, ptr %10, align 4
  br label %72

72:                                               ; preds = %37, %28
  %73 = load i32, ptr %10, align 4
  ret i32 %73
}