; Function Attrs: nounwind uwtable
define internal fastcc void @dissect_RSInfoBlock_block(ptr noundef %0, i32 noundef %1, ptr noundef %2, ptr noundef %3, ptr noundef %4, ptr noundef %5, i8 noundef zeroext %6, i8 noundef zeroext %7) unnamed_addr #0 {
  %9 = alloca i32, align 4
  %10 = icmp ne i8 %6, 1
  %11 = icmp ne i8 %7, 0
  %or.cond = or i1 %10, %11
  br i1 %or.cond, label %12, label %16

12:                                               ; preds = %8
  %13 = zext i8 %7 to i32
  %14 = zext i8 %6 to i32
  %15 = tail call ptr (ptr, ptr, ptr, ptr, ...) @expert_add_info_format(ptr noundef %2, ptr noundef %4, ptr noundef nonnull @ei_pn_io_block_version, ptr noundef nonnull @.str.1317, i32 noundef %14, i32 noundef %13) #11
  br label %26

16:                                               ; preds = %8
  %17 = tail call i32 @dissect_pn_padding(ptr noundef %0, i32 noundef %1, ptr noundef %2, ptr noundef %3, i32 noundef 2) #11
  %18 = load i32, ptr @hf_pn_io_rs_properties, align 4
  %19 = call i32 @dissect_dcerpc_uint32(ptr noundef %0, i32 noundef %17, ptr noundef %2, ptr noundef %3, ptr noundef %5, i32 noundef %18, ptr noundef nonnull %9) #11
  %20 = load i32, ptr @hf_pn_io_rs_properties_alarm_transport, align 4
  %21 = call i32 @dissect_dcerpc_uint32(ptr noundef %0, i32 noundef %17, ptr noundef %2, ptr noundef %3, ptr noundef %5, i32 noundef %20, ptr noundef nonnull %9) #11
  %22 = load i32, ptr @hf_pn_io_rs_properties_reserved1, align 4
  %23 = call i32 @dissect_dcerpc_uint32(ptr noundef %0, i32 noundef %17, ptr noundef %2, ptr noundef %3, ptr noundef %5, i32 noundef %22, ptr noundef nonnull %9) #11
  %24 = load i32, ptr @hf_pn_io_rs_properties_reserved2, align 4
  %25 = call i32 @dissect_dcerpc_uint32(ptr noundef %0, i32 noundef %17, ptr noundef %2, ptr noundef %3, ptr noundef %5, i32 noundef %24, ptr noundef nonnull %9) #11
  br label %26

26:                                               ; preds = %16, %12
  ret void
}